; Function Attrs: mustprogress uwtable
define i64 @_ZNK8QuantLib11CPICapFloor10fixingDateEv(ptr noundef nonnull align 8 dereferenceable(244) %this) local_unnamed_addr #8 align 2 {
entry:
  %ref.tmp = alloca %"class.QuantLib::Date", align 8
  %fixCalendar_ = getelementptr inbounds nuw i8, ptr %this, i64 160
  call void @llvm.lifetime.start.p0(i64 8, ptr nonnull %ref.tmp) #26
  %maturity_ = getelementptr inbounds nuw i8, ptr %this, i64 152
  %observationLag_ = getelementptr inbounds nuw i8, ptr %this, i64 232
  %0 = load i32, ptr %observationLag_, align 8, !tbaa !73
  %sub.i = sub nsw i32 0, %0
  %units_.i.i = getelementptr inbounds nuw i8, ptr %this, i64 236
  %1 = load i32, ptr %units_.i.i, align 4, !tbaa !74
  %call3.i = tail call i64 @_ZN8QuantLib4Date7advanceERKS0_iNS_8TimeUnitE(ptr noundef nonnull align 8 dereferenceable(8) %maturity_, i32 noundef %sub.i, i32 noundef %1)
  store i64 %call3.i, ptr %ref.tmp, align 8
  %fixConvention_ = getelementptr inbounds nuw i8, ptr %this, i64 176
  %2 = load i32, ptr %fixConvention_, align 8, !tbaa !67
  %call2 = call i64 @_ZNK8QuantLib8Calendar6adjustERKNS_4DateENS_21BusinessDayConventionE(ptr noundef nonnull align 8 dereferenceable(16) %fixCalendar_, ptr noundef nonnull align 8 dereferenceable(8) %ref.tmp, i32 noundef %2)
  call void @llvm.lifetime.end.p0(i64 8, ptr nonnull %ref.tmp) #26
  ret i64 %call2
}